; Function Attrs: nofree norecurse nosync nounwind memory(write, argmem: readwrite, inaccessiblemem: none) uwtable
define void @stream_pad(ptr noundef captures(none) %0, i64 noundef %1) local_unnamed_addr #5 {
  %3 = load i64, ptr %0, align 8
  %4 = add i64 %3, %1
  %5 = icmp ugt i64 %4, 63
  br i1 %5, label %.lr.ph, label %._crit_edge

.lr.ph:                                           ; preds = %2
  %6 = getelementptr inbounds nuw i8, ptr %0, i64 8
  %7 = getelementptr inbounds nuw i8, ptr %0, i64 16
  %.pre = load i64, ptr %6, align 8
  br label %8

8:                                                ; preds = %.lr.ph, %8
  %9 = phi i64 [ %.pre, %.lr.ph ], [ 0, %8 ]
  %.09 = phi i64 [ %4, %.lr.ph ], [ %12, %8 ]
  %10 = load ptr, ptr %7, align 8
  %11 = getelementptr inbounds nuw i8, ptr %10, i64 8
  store ptr %11, ptr %7, align 8
  store i64 %9, ptr %10, align 8
  store i64 0, ptr %6, align 8
  %12 = add i64 %.09, -64
  %13 = icmp ugt i64 %12, 63
  br i1 %13, label %8, label %._crit_edge

._crit_edge:                                      ; preds = %8, %2
  %.0.lcssa = phi i64 [ %4, %2 ], [ %12, %8 ]
  store i64 %.0.lcssa, ptr %0, align 8
  ret void
}